; Function Attrs: nounwind uwtable
define nonnull ptr @Emb_ManRandomVertex(ptr noundef readonly captures(none) %0) local_unnamed_addr #1 {
  %2 = getelementptr i8, ptr %0, i64 40
  br label %.critedge

.critedge:                                        ; preds = %.critedge.backedge, %1
  %3 = tail call i32 @Gia_ManRandom(i32 noundef 0) #27
  %4 = mul i32 %3, 911
  %5 = load ptr, ptr %0, align 8, !tbaa !10
  %6 = getelementptr i8, ptr %5, i64 24
  %.val = load i32, ptr %6, align 8, !tbaa !45
  %7 = urem i32 %4, %.val
  %8 = getelementptr i8, ptr %5, i64 32
  %.val11 = load ptr, ptr %8, align 8, !tbaa !48
  %9 = sext i32 %7 to i64
  %10 = getelementptr inbounds %struct.Gia_Obj_t_, ptr %.val11, i64 %9, i32 1
  %11 = load i32, ptr %10, align 4, !tbaa !49
  %.not = icmp eq i32 %11, -1
  br i1 %.not, label %.critedge.backedge, label %12

.critedge.backedge:                               ; preds = %.critedge, %14, %12
  br label %.critedge, !llvm.loop !112

12:                                               ; preds = %.critedge
  %.val9 = load ptr, ptr %2, align 8, !tbaa !47
  %13 = icmp eq ptr %.val9, null
  br i1 %13, label %.critedge.backedge, label %14

14:                                               ; preds = %12
  %15 = zext i32 %11 to i64
  %16 = getelementptr inbounds nuw i32, ptr %.val9, i64 %15
  %.0.val = load i32, ptr %16, align 4
  %17 = and i32 %.0.val, 3
  %.not1.i = icmp ne i32 %17, 0
  %18 = icmp ult i32 %.0.val, 16
  %narrow.i.not = or i1 %18, %.not1.i
  br i1 %narrow.i.not, label %.critedge.backedge, label %19

19:                                               ; preds = %14
  %20 = getelementptr inbounds nuw i32, ptr %.val9, i64 %15
  ret ptr %20
}